target datalayout = "e-m:e-p270:32:32-p271:32:32-p272:64:64-i64:64-i128:128-f80:128-n8:16:32:64-S128"
target triple = "x86_64-pc-linux-gnu"

%union.anon = type { ptr }

@H5_libinit_g = external global i8, align 1
@H5_libterm_g = external global i8, align 1
@H5T_C_S1_g = external global i64, align 8

; Function Attrs: nounwind uwtable
define i32 @H5LTmake_dataset_string(i64 noundef %0, ptr noundef %1, ptr noundef %2) #0 {
  %4 = alloca i32, align 4
  %5 = alloca i64, align 8
  %6 = alloca ptr, align 8
  %7 = alloca ptr, align 8
  %8 = alloca i64, align 8
  %9 = alloca i64, align 8
  %10 = alloca i64, align 8
  %11 = alloca i64, align 8
  %12 = alloca i32, align 4
  %13 = alloca i32, align 4
  %14 = alloca %union.anon, align 8
  %15 = alloca ptr, align 8
  store i64 %0, ptr %5, align 8, !tbaa !3
  store ptr %1, ptr %6, align 8, !tbaa !7
  store ptr %2, ptr %7, align 8, !tbaa !7
  call void @llvm.lifetime.start.p0(i64 8, ptr %8) #11
  store i64 -1, ptr %8, align 8, !tbaa !3
  call void @llvm.lifetime.start.p0(i64 8, ptr %9) #11
  store i64 -1, ptr %9, align 8, !tbaa !3
  call void @llvm.lifetime.start.p0(i64 8, ptr %10) #11
  store i64 -1, ptr %10, align 8, !tbaa !3
  call void @llvm.lifetime.start.p0(i64 8, ptr %11) #11
  %16 = load ptr, ptr %6, align 8, !tbaa !7
  %17 = icmp eq ptr %16, null
  br i1 %17, label %18, label %19

18:                                               ; preds = %3
  store i32 -1, ptr %4, align 4
  store i32 1, ptr %12, align 4
  br label %123

19:                                               ; preds = %3
  %20 = load i8, ptr @H5_libinit_g, align 1, !tbaa !16, !range !18, !noundef !19
  %21 = trunc i8 %20 to i1
  br i1 %21, label %26, label %22

22:                                               ; preds = %19
  %23 = load i8, ptr @H5_libterm_g, align 1, !tbaa !16, !range !18, !noundef !19
  %24 = trunc i8 %23 to i1
  %25 = xor i1 %24, true
  br label %26

26:                                               ; preds = %22, %19
  %27 = phi i1 [ false, %19 ], [ %25, %22 ]
  %28 = xor i1 %27, true
  %29 = xor i1 %28, true
  %30 = zext i1 %29 to i32
  %31 = sext i32 %30 to i64
  %32 = call i64 @llvm.expect.i64(i64 %31, i64 0)
  %33 = icmp ne i64 %32, 0
  br i1 %33, label %34, label %36

34:                                               ; preds = %26
  %35 = call i32 @H5open()
  br label %37

36:                                               ; preds = %26
  br label %37

37:                                               ; preds = %36, %34
  %38 = load i64, ptr @H5T_C_S1_g, align 8, !tbaa !3
  %39 = call i64 @H5Tcopy(i64 noundef %38)
  store i64 %39, ptr %10, align 8, !tbaa !3
  %40 = icmp slt i64 %39, 0
  br i1 %40, label %41, label %42

41:                                               ; preds = %37
  br label %95

42:                                               ; preds = %37
  %43 = load ptr, ptr %7, align 8, !tbaa !7
  %44 = call i64 @strlen(ptr noundef %43) #12
  %45 = add i64 %44, 1
  store i64 %45, ptr %11, align 8, !tbaa !3
  %46 = load i64, ptr %10, align 8, !tbaa !3
  %47 = load i64, ptr %11, align 8, !tbaa !3
  %48 = call i32 @H5Tset_size(i64 noundef %46, i64 noundef %47)
  %49 = icmp slt i32 %48, 0
  br i1 %49, label %50, label %51

50:                                               ; preds = %42
  br label %95

51:                                               ; preds = %42
  %52 = load i64, ptr %10, align 8, !tbaa !3
  %53 = call i32 @H5Tset_strpad(i64 noundef %52, i32 noundef 0)
  %54 = icmp slt i32 %53, 0
  br i1 %54, label %55, label %56

55:                                               ; preds = %51
  br label %95

56:                                               ; preds = %51
  %57 = call i64 @H5Screate(i32 noundef 0)
  store i64 %57, ptr %9, align 8, !tbaa !3
  %58 = icmp slt i64 %57, 0
  br i1 %58, label %59, label %60

59:                                               ; preds = %56
  br label %95

60:                                               ; preds = %56
  %61 = load i64, ptr %5, align 8, !tbaa !3
  %62 = load ptr, ptr %6, align 8, !tbaa !7
  %63 = load i64, ptr %10, align 8, !tbaa !3
  %64 = load i64, ptr %9, align 8, !tbaa !3
  %65 = call i64 @H5Dcreate2(i64 noundef %61, ptr noundef %62, i64 noundef %63, i64 noundef %64, i64 noundef 0, i64 noundef 0, i64 noundef 0)
  store i64 %65, ptr %8, align 8, !tbaa !3
  %66 = icmp slt i64 %65, 0
  br i1 %66, label %67, label %68

67:                                               ; preds = %60
  br label %95

68:                                               ; preds = %60
  %69 = load ptr, ptr %7, align 8, !tbaa !7
  %70 = icmp ne ptr %69, null
  br i1 %70, label %71, label %79

71:                                               ; preds = %68
  %72 = load i64, ptr %8, align 8, !tbaa !3
  %73 = load i64, ptr %10, align 8, !tbaa !3
  %74 = load ptr, ptr %7, align 8, !tbaa !7
  %75 = call i32 @H5Dwrite(i64 noundef %72, i64 noundef %73, i64 noundef 0, i64 noundef 0, i64 noundef 0, ptr noundef %74)
  %76 = icmp slt i32 %75, 0
  br i1 %76, label %77, label %78

77:                                               ; preds = %71
  br label %95

78:                                               ; preds = %71
  br label %79

79:                                               ; preds = %78, %68
  %80 = load i64, ptr %8, align 8, !tbaa !3
  %81 = call i32 @H5Dclose(i64 noundef %80)
  %82 = icmp slt i32 %81, 0
  br i1 %82, label %83, label %84

83:                                               ; preds = %79
  store i32 -1, ptr %4, align 4
  store i32 1, ptr %12, align 4
  br label %123

84:                                               ; preds = %79
  %85 = load i64, ptr %9, align 8, !tbaa !3
  %86 = call i32 @H5Sclose(i64 noundef %85)
  %87 = icmp slt i32 %86, 0
  br i1 %87, label %88, label %89

88:                                               ; preds = %84
  store i32 -1, ptr %4, align 4
  store i32 1, ptr %12, align 4
  br label %123

89:                                               ; preds = %84
  %90 = load i64, ptr %10, align 8, !tbaa !3
  %91 = call i32 @H5Tclose(i64 noundef %90)
  %92 = icmp slt i32 %91, 0
  br i1 %92, label %93, label %94

93:                                               ; preds = %89
  br label %95

94:                                               ; preds = %89
  store i32 0, ptr %4, align 4
  store i32 1, ptr %12, align 4
  br label %123

95:                                               ; preds = %93, %77, %67, %59, %55, %50, %41
  call void @llvm.lifetime.start.p0(i64 4, ptr %13) #11
  call void @llvm.lifetime.start.p0(i64 8, ptr %14) #11
  call void @llvm.lifetime.start.p0(i64 8, ptr %15) #11
  %96 = call i32 @H5Eauto_is_v2(i64 noundef 0, ptr noundef %13)
  %97 = load i32, ptr %13, align 4, !tbaa !10
  %98 = icmp ne i32 %97, 0
  br i1 %98, label %99, label %102

99:                                               ; preds = %95
  %100 = call i32 @H5Eget_auto2(i64 noundef 0, ptr noundef %14, ptr noundef %15)
  %101 = call i32 @H5Eset_auto2(i64 noundef 0, ptr noundef null, ptr noundef null)
  br label %105

102:                                              ; preds = %95
  %103 = call i32 @H5Eget_auto1(ptr noundef %14, ptr noundef %15)
  %104 = call i32 @H5Eset_auto1(ptr noundef null, ptr noundef null)
  br label %105

105:                                              ; preds = %102, %99
  %106 = load i64, ptr %8, align 8, !tbaa !3
  %107 = call i32 @H5Dclose(i64 noundef %106)
  %108 = load i64, ptr %10, align 8, !tbaa !3
  %109 = call i32 @H5Tclose(i64 noundef %108)
  %110 = load i64, ptr %9, align 8, !tbaa !3
  %111 = call i32 @H5Sclose(i64 noundef %110)
  %112 = load i32, ptr %13, align 4, !tbaa !10
  %113 = icmp ne i32 %112, 0
  br i1 %113, label %114, label %118

114:                                              ; preds = %105
  %115 = load ptr, ptr %14, align 8, !tbaa !15
  %116 = load ptr, ptr %15, align 8, !tbaa !14
  %117 = call i32 @H5Eset_auto2(i64 noundef 0, ptr noundef %115, ptr noundef %116)
  br label %122

118:                                              ; preds = %105
  %119 = load ptr, ptr %14, align 8, !tbaa !15
  %120 = load ptr, ptr %15, align 8, !tbaa !14
  %121 = call i32 @H5Eset_auto1(ptr noundef %119, ptr noundef %120)
  br label %122

122:                                              ; preds = %118, %114
  call void @llvm.lifetime.end.p0(i64 8, ptr %15) #11
  call void @llvm.lifetime.end.p0(i64 8, ptr %14) #11
  call void @llvm.lifetime.end.p0(i64 4, ptr %13) #11
  store i32 -1, ptr %4, align 4
  store i32 1, ptr %12, align 4
  br label %123

123:                                              ; preds = %122, %94, %88, %83, %18
  call void @llvm.lifetime.end.p0(i64 8, ptr %11) #11
  call void @llvm.lifetime.end.p0(i64 8, ptr %10) #11
  call void @llvm.lifetime.end.p0(i64 8, ptr %9) #11
  call void @llvm.lifetime.end.p0(i64 8, ptr %8) #11
  %124 = load i32, ptr %4, align 4
  ret i32 %124
}