; Function Attrs: nounwind uwtable
define range(i32 -1, 1) i32 @H5LTmake_dataset_string(i64 noundef %0, ptr noundef %1, ptr noundef %2) local_unnamed_addr #0 {
  %4 = alloca i32, align 4
  %5 = alloca %union.anon, align 8
  %6 = alloca ptr, align 8
  %7 = icmp eq ptr %1, null
  br i1 %7, label %67, label %8

8:                                                ; preds = %3
  %9 = load i8, ptr @H5_libinit_g, align 1, !tbaa !10, !range !12, !noundef !13
  %10 = trunc nuw i8 %9 to i1
  %11 = load i8, ptr @H5_libterm_g, align 1, !range !12
  %12 = trunc nuw i8 %11 to i1
  %13 = select i1 %10, i1 true, i1 %12
  br i1 %13, label %16, label %14, !prof !14

14:                                               ; preds = %8
  %15 = tail call i32 @H5open() #20
  br label %16

16:                                               ; preds = %8, %14
  %17 = load i64, ptr @H5T_C_S1_g, align 8, !tbaa !15
  %18 = tail call i64 @H5Tcopy(i64 noundef %17) #20
  %19 = icmp slt i64 %18, 0
  br i1 %19, label %46, label %20

20:                                               ; preds = %16
  %21 = tail call i64 @strlen(ptr noundef nonnull dereferenceable(1) %2) #21
  %22 = add i64 %21, 1
  %23 = tail call i32 @H5Tset_size(i64 noundef %18, i64 noundef %22) #20
  %24 = icmp slt i32 %23, 0
  br i1 %24, label %46, label %25

25:                                               ; preds = %20
  %26 = tail call i32 @H5Tset_strpad(i64 noundef %18, i32 noundef 0) #20
  %27 = icmp slt i32 %26, 0
  br i1 %27, label %46, label %28

28:                                               ; preds = %25
  %29 = tail call i64 @H5Screate(i32 noundef 0) #20
  %30 = icmp slt i64 %29, 0
  br i1 %30, label %46, label %31

31:                                               ; preds = %28
  %32 = tail call i64 @H5Dcreate2(i64 noundef %0, ptr noundef nonnull %1, i64 noundef %18, i64 noundef %29, i64 noundef 0, i64 noundef 0, i64 noundef 0) #20
  %33 = icmp slt i64 %32, 0
  br i1 %33, label %46, label %34

34:                                               ; preds = %31
  %35 = tail call i32 @H5Dwrite(i64 noundef %32, i64 noundef %18, i64 noundef 0, i64 noundef 0, i64 noundef 0, ptr noundef nonnull %2) #20
  %36 = icmp slt i32 %35, 0
  br i1 %36, label %46, label %37

37:                                               ; preds = %34
  %38 = tail call i32 @H5Dclose(i64 noundef %32) #20
  %39 = icmp slt i32 %38, 0
  br i1 %39, label %67, label %40

40:                                               ; preds = %37
  %41 = tail call i32 @H5Sclose(i64 noundef %29) #20
  %42 = icmp slt i32 %41, 0
  br i1 %42, label %67, label %43

43:                                               ; preds = %40
  %44 = tail call i32 @H5Tclose(i64 noundef %18) #20
  %45 = icmp slt i32 %44, 0
  br i1 %45, label %46, label %67

46:                                               ; preds = %43, %34, %31, %28, %25, %20, %16
  %.020 = phi i64 [ -1, %16 ], [ -1, %20 ], [ -1, %25 ], [ -1, %28 ], [ %32, %31 ], [ %32, %34 ], [ %32, %43 ]
  %.019 = phi i64 [ -1, %16 ], [ -1, %20 ], [ -1, %25 ], [ %29, %28 ], [ %29, %31 ], [ %29, %34 ], [ %29, %43 ]
  call void @llvm.lifetime.start.p0(i64 4, ptr nonnull %4) #20
  call void @llvm.lifetime.start.p0(i64 8, ptr nonnull %5) #20
  call void @llvm.lifetime.start.p0(i64 8, ptr nonnull %6) #20
  %47 = call i32 @H5Eauto_is_v2(i64 noundef 0, ptr noundef nonnull %4) #20
  %48 = load i32, ptr %4, align 4, !tbaa !3
  %.not = icmp eq i32 %48, 0
  br i1 %.not, label %52, label %49

49:                                               ; preds = %46
  %50 = call i32 @H5Eget_auto2(i64 noundef 0, ptr noundef nonnull %5, ptr noundef nonnull %6) #20
  %51 = call i32 @H5Eset_auto2(i64 noundef 0, ptr noundef null, ptr noundef null) #20
  br label %55

52:                                               ; preds = %46
  %53 = call i32 @H5Eget_auto1(ptr noundef nonnull %5, ptr noundef nonnull %6) #20
  %54 = call i32 @H5Eset_auto1(ptr noundef null, ptr noundef null) #20
  br label %55

55:                                               ; preds = %52, %49
  %56 = call i32 @H5Dclose(i64 noundef %.020) #20
  %57 = call i32 @H5Tclose(i64 noundef %18) #20
  %58 = call i32 @H5Sclose(i64 noundef %.019) #20
  %59 = load i32, ptr %4, align 4, !tbaa !3
  %.not27 = icmp eq i32 %59, 0
  %60 = load ptr, ptr %5, align 8, !tbaa !7
  %61 = load ptr, ptr %6, align 8, !tbaa !8
  br i1 %.not27, label %64, label %62

62:                                               ; preds = %55
  %63 = call i32 @H5Eset_auto2(i64 noundef 0, ptr noundef %60, ptr noundef %61) #20
  br label %66

64:                                               ; preds = %55
  %65 = call i32 @H5Eset_auto1(ptr noundef %60, ptr noundef %61) #20
  br label %66

66:                                               ; preds = %64, %62
  call void @llvm.lifetime.end.p0(i64 8, ptr nonnull %6) #20
  call void @llvm.lifetime.end.p0(i64 8, ptr nonnull %5) #20
  call void @llvm.lifetime.end.p0(i64 4, ptr nonnull %4) #20
  br label %67

67:                                               ; preds = %43, %40, %37, %3, %66
  %.0 = phi i32 [ -1, %66 ], [ -1, %3 ], [ -1, %37 ], [ -1, %40 ], [ 0, %43 ]
  ret i32 %.0
}